(dp1
I1
(lp2
I42
aI93
aI145
asI2
(lp3
I178
asI3
(lp4
I69
asI4
(lp5
I178
asI5
(lp6
I87
asI6
(lp7
I103
aI178
asI7
(lp8
I34
aI162
asI8
(lp9
I40
asI9
(lp10
I136
asI10
(lp11
I125
asI11
(lp12
I178
asI12
(lp13
I69
asI13
(lp14
I93
asI14
(lp15
I22
aI47
asI15
(lp16
I69
asI16
(lp17
I93
aI161
asI17
(lp18
I178
asI18
(lp19
I93
asI19
(lp20
I179
asI20
(lp21
I132
asI21
(lp22
I27
asI22
(lp23
I27
asI23
(lp24
I125
asI24
(lp25
I161
asI25
(lp26
I179
asI26
(lp27
I42
aI136
asI27
(lp28
I206
asI28
(lp29
I85
aI86
asI29
(lp30
I87
aI93
asI30
(lp31
I69
asI31
(lp32
I42
asI32
(lp33
I93
aI202
asI33
(lp34
I178
asI34
(lp35
I37
asI35
(lp36
I178
asI36
(lp37
I93
asI37
(lp38
I93
asI38
(lp39
I37
asI39
(lp40
I218
asI40
(lp41
I93
aI111
asI41
(lp42
I103
aI178
asI42
(lp43
I204
asI43
(lp44
I178
asI44
(lp45
I37
asI45
(lp46
I145
asI46
(lp47
I214
aI218
asI47
(lp48
I7
asI48
(lp49
I178
asI49
(lp50
I71
aI74
aI86
aI104
asI50
(lp51
I130
asI51
(lp52
I37
asI52
(lp53
I37
asI53
(lp54
I87
asI54
(lp55
I178
aI181
asI55
(lp56
I73
asI56
(lp57
I94
aI97
asI57
(lp58
I32
asI58
(lp59
I102
asI59
(lp60
I42
asI60
(lp61
I42
aI116
asI61
(lp62
I129
asI62
(lp63
I100
asI63
(lp64
I100
asI64
(lp65
I42
asI65
(lp66
I37
asI66
(lp67
I178
asI67
(lp68
I144
asI68
(lp69
I202
asI69
(lp70
I178
asI70
(lp71
I103
aI178
asI71
(lp72
I17
asI72
(lp73
I86
asI73
(lp74
I37
asI74
(lp75
I125
asI75
(lp76
I125
asI76
(lp77
I54
asI77
(lp78
I37
asI78
(lp79
I125
asI79
(lp80
I117
aI183
asI80
(lp81
I116
asI81
(lp82
I204
asI82
(lp83
I178
aI212
asI83
(lp84
I42
asI84
(lp85
I204
asI85
(lp86
I182
asI86
(lp87
I116
aI139
asI87
(lp88
I132
asI88
(lp89
I42
aI54
asI89
(lp90
I39
asI90
(lp91
I178
asI91
(lp92
I20
asI92
(lp93
I135
asI93
(lp94
I135
asI94
(lp95
I116
aI137
asI95
(lp96
I178
aI181
asI96
(lp97
I178
asI97
(lp98
I125
asI98
(lp99
I91
asI99
(lp100
I20
asI100
(lp101
I20
asI101
(lp102
I42
asI103
(lp103
I29
aI47
aI60
asI104
(lp104
I221
asI106
(lp105
I27
aI39
asI107
(lp106
I42
asI108
(lp107
I161
asI109
(lp108
I202
asI110
(lp109
I161
asI111
(lp110
I34
asI112
(lp111
I178
asI113
(lp112
I183
asI114
(lp113
I111
asI115
(lp114
I86
asI116
(lp115
I71
aI86
asI117
(lp116
I178
asI118
(lp117
I60
asI119
(lp118
I19
asI120
(lp119
I91
asI121
(lp120
I91
asI122
(lp121
I204
asI123
(lp122
I37
asI124
(lp123
I63
asI125
(lp124
I178
asI126
(lp125
I108
asI127
(lp126
I182
asI128
(lp127
I37
asI129
(lp128
I93
asI130
(lp129
I39
asI131
(lp130
I49
asI132
(lp131
I132
asI133
(lp132
I202
as.