(dp1
I1
(lp2
I164
asI2
(lp3
I266
asI3
(lp4
I315
asI4
(lp5
I30
aI36
aI46
aI77
aI85
aI90
aI92
aI95
aI96
aI163
asI5
(lp6
I351
asI6
(lp7
I248
asI7
(lp8
I312
asI8
(lp9
I317
asI9
(lp10
I315
asI10
(lp11
I69
asI11
(lp12
I249
asI12
(lp13
I151
asI13
(lp14
I50
asI14
(lp15
I139
aI163
asI15
(lp16
I153
asI16
(lp17
I254
asI17
(lp18
I315
asI18
(lp19
I253
aI276
aI277
asI19
(lp20
I139
asI20
(lp21
I162
asI21
(lp22
I287
asI22
(lp23
I281
asI23
(lp24
I179
asI24
(lp25
I191
asI25
(lp26
I185
asI26
(lp27
I71
aI72
aI73
aI76
aI80
aI81
aI86
aI87
aI88
aI91
aI139
aI168
aI173
aI174
aI175
aI176
aI179
aI185
aI186
as.