(dp1
I1
(lp2
I128
aI131
asI2
(lp3
I86
asI3
(lp4
I405
asI4
(lp5
I162
aI168
asI5
(lp6
I65
asI6
(lp7
I262
aI264
aI265
aI266
aI269
aI270
asI7
(lp8
I233
asI9
(lp9
I156
asI10
(lp10
I4
asI11
(lp11
I90
asI12
(lp12
I84
aI89
aI92
asI13
(lp13
I293
asI14
(lp14
I120
asI15
(lp15
I403
asI16
(lp16
I403
asI17
(lp17
I73
asI18
(lp18
I285
asI19
(lp19
I285
asI20
(lp20
I285
asI21
(lp21
I199
asI22
(lp22
I83
aI99
asI23
(lp23
I302
asI24
(lp24
I302
asI25
(lp25
I292
asI26
(lp26
I131
asI27
(lp27
I131
asI28
(lp28
I299
asI29
(lp29
I206
asI30
(lp30
I381
asI31
(lp31
I77
aI83
asI32
(lp32
I158
asI33
(lp33
I299
asI34
(lp34
I142
asI35
(lp35
I136
asI36
(lp36
I128
asI37
(lp37
I65
asI38
(lp38
I284
asI39
(lp39
I233
asI40
(lp40
I50
asI41
(lp41
I368
asI42
(lp42
I299
asI43
(lp43
I353
aI356
asI44
(lp44
I224
asI45
(lp45
I191
asI46
(lp46
I65
asI47
(lp47
I65
asI48
(lp48
I59
asI49
(lp49
I206
asI50
(lp50
I59
asI51
(lp51
I59
asI52
(lp52
I160
asI53
(lp53
I65
asI54
(lp54
I73
asI56
(lp55
I407
asI57
(lp56
I339
asI58
(lp57
I291
asI59
(lp58
I403
asI60
(lp59
I92
asI61
(lp60
I95
asI63
(lp61
I406
asI64
(lp62
I297
asI65
(lp63
I296
asI66
(lp64
I302
asI68
(lp65
I297
asI69
(lp66
I341
aI342
asI70
(lp67
I49
asI71
(lp68
I229
aI233
asI72
(lp69
I51
asI73
(lp70
I51
asI74
(lp71
I228
asI75
(lp72
I334
asI76
(lp73
I202
asI77
(lp74
I172
aI206
asI78
(lp75
I224
asI79
(lp76
I339
asI82
(lp77
I299
asI83
(lp78
I299
asI85
(lp79
I92
asI87
(lp80
I299
asI88
(lp81
I299
asI89
(lp82
I334
asI90
(lp83
I334
asI91
(lp84
I131
asI92
(lp85
I406
asI93
(lp86
I406
asI94
(lp87
I406
asI95
(lp88
I83
asI96
(lp89
I65
asI99
(lp90
I406
asI101
(lp91
I64
aI67
asI102
(lp92
I379
aI384
asI103
(lp93
I92
asI104
(lp94
I332
asI105
(lp95
I390
asI106
(lp96
I130
as.