(dp1
I1
(lp2
I67
asI2
(lp3
I19
asI3
(lp4
I67
asI4
(lp5
I91
asI5
(lp6
I19
asI6
(lp7
I29
asI7
(lp8
I67
asI8
(lp9
I104
aI106
asI9
(lp10
I103
aI105
asI10
(lp11
I103
aI105
asI11
(lp12
I21
asI12
(lp13
I21
asI13
(lp14
I23
asI14
(lp15
I25
asI15
(lp16
I79
asI16
(lp17
I67
asI17
(lp18
I24
asI18
(lp19
I102
asI19
(lp20
I93
asI20
(lp21
I29
asI21
(lp22
I100
asI22
(lp23
I65
asI23
(lp24
I81
asI24
(lp25
I67
asI25
(lp26
I90
asI26
(lp27
I102
asI27
(lp28
I67
asI28
(lp29
I93
asI29
(lp30
I31
asI30
(lp31
I25
asI31
(lp32
I25
asI32
(lp33
I37
asI33
(lp34
I14
asI34
(lp35
I46
asI35
(lp36
I2
asI36
(lp37
I67
asI37
(lp38
I2
asI38
(lp39
I102
asI39
(lp40
I29
as.